target datalayout = "e-m:e-p270:32:32-p271:32:32-p272:64:64-i64:64-i128:128-f80:128-n8:16:32:64-S128"
target triple = "x86_64-pc-linux-gnu"

%class.CodeSection = type { ptr, ptr, ptr, ptr, ptr, ptr, ptr, ptr, i8, i8, i32, i8, ptr }
%class.CodeBuffer = type { ptr, %class.CodeSection, %class.CodeSection, %class.CodeSection, ptr, ptr, ptr, i32, ptr, %class.OopRecorder, ptr, ptr, ptr, ptr, ptr, i8, i32 }
%class.OopRecorder = type { %class.ValueRecorder, %class.ValueRecorder.0, ptr }
%class.ValueRecorder = type <{ ptr, ptr, ptr, ptr, i8, [7 x i8] }>
%class.ValueRecorder.0 = type <{ ptr, ptr, ptr, ptr, i8, [7 x i8] }>

@g_assert_poison = external global ptr, align 8
@.str = private unnamed_addr constant [37 x i8] c"src/hotspot/share/code/relocInfo.cpp\00", align 1
@.str.10 = private unnamed_addr constant [48 x i8] c"guarantee(sect != CodeBuffer::SECT_NONE) failed\00", align 1
@.str.11 = private unnamed_addr constant [27 x i8] c"lost track of this address\00", align 1

; Function Attrs: mustprogress nounwind uwtable
define linkonce_odr hidden noundef ptr @_ZN10CodeBuffer12code_sectionEi(ptr noundef nonnull align 8 dereferenceable(448) %0, i32 noundef %1) #1 comdat align 2 {
  %3 = alloca ptr, align 8
  %4 = alloca i32, align 4
  %5 = alloca ptr, align 8
  store ptr %0, ptr %3, align 8
  store i32 %1, ptr %4, align 4
  %6 = load ptr, ptr %3, align 8
  %7 = getelementptr inbounds %class.CodeBuffer, ptr %6, i32 0, i32 1
  %8 = load i32, ptr %4, align 4
  %9 = sext i32 %8 to i64
  %10 = getelementptr inbounds %class.CodeSection, ptr %7, i64 %9
  store ptr %10, ptr %5, align 8
  %11 = load ptr, ptr %5, align 8
  ret ptr %11
}

; Function Attrs: mustprogress nounwind uwtable
define linkonce_odr hidden noundef ptr @_ZNK11CodeSection5startEv(ptr noundef nonnull align 8 dereferenceable(88) %0) #1 comdat align 2 {
  %2 = alloca ptr, align 8
  store ptr %0, ptr %2, align 8
  %3 = load ptr, ptr %2, align 8
  %4 = getelementptr inbounds %class.CodeSection, ptr %3, i32 0, i32 0
  %5 = load ptr, ptr %4, align 8
  ret ptr %5
}

; Function Attrs: mustprogress nounwind uwtable
define linkonce_odr hidden noundef ptr @_ZNK10CodeBuffer12code_sectionEi(ptr noundef nonnull align 8 dereferenceable(448) %0, i32 noundef %1) #1 comdat align 2 {
  %3 = alloca ptr, align 8
  %4 = alloca i32, align 4
  store ptr %0, ptr %3, align 8
  store i32 %1, ptr %4, align 4
  %5 = load ptr, ptr %3, align 8
  %6 = load i32, ptr %4, align 4
  %7 = call noundef ptr @_ZN10CodeBuffer12code_sectionEi(ptr noundef nonnull align 8 dereferenceable(448) %5, i32 noundef %6)
  ret ptr %7
}

; Function Attrs: mustprogress nounwind uwtable
define hidden noundef ptr @_ZN10Relocation12old_addr_forEPhPK10CodeBufferPS1_(ptr noundef nonnull align 8 dereferenceable(20) %0, ptr noundef %1, ptr noundef %2, ptr noundef %3) #1 align 2 {
  %5 = alloca ptr, align 8
  %6 = alloca ptr, align 8
  %7 = alloca ptr, align 8
  %8 = alloca ptr, align 8
  %9 = alloca i32, align 4
  %10 = alloca ptr, align 8
  %11 = alloca ptr, align 8
  store ptr %0, ptr %5, align 8
  store ptr %1, ptr %6, align 8
  store ptr %2, ptr %7, align 8
  store ptr %3, ptr %8, align 8
  %12 = load ptr, ptr %8, align 8
  %13 = load ptr, ptr %6, align 8
  %14 = call noundef i32 @_ZNK10CodeBuffer16section_index_ofEPh(ptr noundef nonnull align 8 dereferenceable(448) %12, ptr noundef %13)
  store i32 %14, ptr %9, align 4
  br label %15

15:                                               ; preds = %4
  %16 = load i32, ptr %9, align 4
  %17 = icmp ne i32 %16, -1
  br i1 %17, label %20, label %18

18:                                               ; preds = %15
  %19 = load ptr, ptr @g_assert_poison, align 8
  store i8 88, ptr %19, align 1
  call void (ptr, i32, ptr, ptr, ...) @_Z15report_vm_errorPKciS0_S0_z(ptr noundef @.str, i32 noundef 329, ptr noundef @.str.10, ptr noundef @.str.11) #7
  unreachable

20:                                               ; preds = %15
  br label %21

21:                                               ; preds = %20
  %22 = load ptr, ptr %7, align 8
  %23 = load i32, ptr %9, align 4
  %24 = call noundef ptr @_ZNK10CodeBuffer12code_sectionEi(ptr noundef nonnull align 8 dereferenceable(448) %22, i32 noundef %23)
  %25 = call noundef ptr @_ZNK11CodeSection5startEv(ptr noundef nonnull align 8 dereferenceable(88) %24)
  store ptr %25, ptr %10, align 8
  %26 = load ptr, ptr %8, align 8
  %27 = load i32, ptr %9, align 4
  %28 = call noundef ptr @_ZN10CodeBuffer12code_sectionEi(ptr noundef nonnull align 8 dereferenceable(448) %26, i32 noundef %27)
  %29 = call noundef ptr @_ZNK11CodeSection5startEv(ptr noundef nonnull align 8 dereferenceable(88) %28)
  store ptr %29, ptr %11, align 8
  %30 = load ptr, ptr %10, align 8
  %31 = load ptr, ptr %6, align 8
  %32 = load ptr, ptr %11, align 8
  %33 = ptrtoint ptr %31 to i64
  %34 = ptrtoint ptr %32 to i64
  %35 = sub i64 %33, %34
  %36 = getelementptr inbounds i8, ptr %30, i64 %35
  ret ptr %36
}