; Function Attrs: mustprogress nounwind uwtable
define hidden noundef ptr @_ZN10Relocation12old_addr_forEPhPK10CodeBufferPS1_(ptr nocapture noundef nonnull readnone align 8 dereferenceable(20) %0, ptr noundef %1, ptr nocapture noundef readonly %2, ptr noundef nonnull %3) local_unnamed_addr #0 align 2 {
  %5 = tail call noundef i32 @_ZNK10CodeBuffer16section_index_ofEPh(ptr noundef nonnull align 8 dereferenceable(448) %3, ptr noundef %1) #19
  %.not = icmp eq i32 %5, -1
  br i1 %.not, label %6, label %8

6:                                                ; preds = %4
  %7 = load ptr, ptr @g_assert_poison, align 8
  store i8 88, ptr %7, align 1
  tail call void (ptr, i32, ptr, ptr, ...) @_Z15report_vm_errorPKciS0_S0_z(ptr noundef nonnull @.str, i32 noundef 329, ptr noundef nonnull @.str.10, ptr noundef nonnull @.str.11) #20
  unreachable

8:                                                ; preds = %4
  %9 = getelementptr inbounds i8, ptr %2, i64 8
  %10 = sext i32 %5 to i64
  %11 = getelementptr inbounds %class.CodeSection, ptr %9, i64 %10
  %12 = load ptr, ptr %11, align 8
  %13 = getelementptr inbounds i8, ptr %3, i64 8
  %14 = getelementptr inbounds %class.CodeSection, ptr %13, i64 %10
  %15 = load ptr, ptr %14, align 8
  %16 = ptrtoint ptr %1 to i64
  %17 = ptrtoint ptr %15 to i64
  %18 = sub i64 %16, %17
  %19 = getelementptr inbounds i8, ptr %12, i64 %18
  ret ptr %19
}